(lp0
(F-0.3076508045196533
F-0.7431049346923828
F-0.5942609310150146
tp1
a(F-0.30055713653564453
F-0.7387105822563171
F-0.6033010482788086
tp2
a(F-0.2855488061904907
F-0.7496837377548218
F-0.5970227718353271
tp3
a(F-0.28129705786705017
F-0.7481681108474731
F-0.6009296774864197
tp4
a(F-0.28684332966804504
F-0.7594983577728271
F-0.5838518738746643
tp5
a(F-0.29244568943977356
F-0.7428892254829407
F-0.602155327796936
tp6
a(F-0.2942763566970825
F-0.7468346953392029
F-0.5963550209999084
tp7
a(F-0.29572629928588867
F-0.7460463047027588
F-0.596624493598938
tp8
a(F-0.2922901511192322
F-0.7546069622039795
F-0.5874817967414856
tp9
a(F-0.2838040590286255
F-0.7560375928878784
F-0.589798629283905
tp10
a(F-0.3065945506095886
F-0.7397443652153015
F-0.5989808440208435
tp11
a(F-0.2897898256778717
F-0.7437043190002441
F-0.6024331450462341
tp12
a(F-0.28566330671310425
F-0.7527804374694824
F-0.5930582880973816
tp13
a(F-0.28064167499542236
F-0.7488071918487549
F-0.6004397869110107
tp14
a(F-0.29222041368484497
F-0.7494971752166748
F-0.5940211415290833
tp15
a(F-0.30507075786590576
F-0.7377848029136658
F-0.6021673083305359
tp16
a(F-0.2877243161201477
F-0.7527518272399902
F-0.5920974016189575
tp17
a(F-0.2959426939487457
F-0.7419663667678833
F-0.6015844345092773
tp18
a(F-0.2999946177005768
F-0.7424026131629944
F-0.5990339517593384
tp19
a(F-0.2817223370075226
F-0.7601966857910156
F-0.5854344964027405
tp20
a(F-0.2936902940273285
F-0.7471516728401184
F-0.5962469577789307
tp21
a(F-0.2834097743034363
F-0.7532515525817871
F-0.593541145324707
tp22
a(F-0.2956215441226959
F-0.7443068623542786
F-0.5988447666168213
tp23
a(F-0.3007207214832306
F-0.7504799962043762
F-0.5885123610496521
tp24
a(F-0.30913469195365906
F-0.7365204095840454
F-0.6016422510147095
tp25
a(F-0.28839272260665894
F-0.7449643611907959
F-0.6015459895133972
tp26
a(F-0.30288970470428467
F-0.7499414682388306
F-0.5880863070487976
tp27
a(F-0.279746413230896
F-0.7498674988746643
F-0.59953373670578
tp28
a(F-0.2950088381767273
F-0.7514954209327698
F-0.5901054739952087
tp29
a(F-0.29878875613212585
F-0.7476269602775574
F-0.5931099057197571
tp30
a(F-0.2791236340999603
F-0.7155826091766357
F-0.6403369307518005
tp31
a(F-0.30287623405456543
F-0.7784350514411926
F-0.5498225688934326
tp32
a(F-0.3091146945953369
F-0.7733235955238342
F-0.5535509586334229
tp33
a(F-0.29929420351982117
F-0.7484699487686157
F-0.5917902588844299
tp34
a(F-0.28660479187965393
F-0.7537219524383545
F-0.5914059281349182
tp35
a(F-0.29203858971595764
F-0.748521089553833
F-0.595339834690094
tp36
a(F-0.2711486518383026
F-0.760929524898529
F-0.5894613265991211
tp37
a(F-0.26181840896606445
F-0.7576748728752136
F-0.5978125929832458
tp38
a(F-0.28420016169548035
F-0.7565374970436096
F-0.588966429233551
tp39
a(F-0.28350013494491577
F-0.750227153301239
F-0.597316563129425
tp40
a(F-0.300767183303833
F-0.7539856433868408
F-0.5839903354644775
tp41
a(F-0.28382861614227295
F-0.7430424094200134
F-0.6060769557952881
tp42
a(F-0.28738999366760254
F-0.7373706102371216
F-0.6113032102584839
tp43
a(F-0.28601768612861633
F-0.7490367293357849
F-0.5976101756095886
tp44
a(F-0.2886234521865845
F-0.7462401986122131
F-0.5998517870903015
tp45
a(F-0.3034001588821411
F-0.7411500215530396
F-0.598869800567627
tp46
a(F-0.2931904196739197
F-0.754230797290802
F-0.5875163078308105
tp47
a(F-0.2889432907104492
F-0.7425956726074219
F-0.6042047142982483
tp48
a(F-0.2743304669857025
F-0.7539869546890259
F-0.5968637466430664
tp49
a(F-0.3113749325275421
F-0.7412594556808472
F-0.5946260094642639
tp50
a(F-0.2899028956890106
F-0.7327009439468384
F-0.6157156229019165
tp51
a(F-0.29410049319267273
F-0.7633448243141174
F-0.5751603841781616
tp52
a(F-0.28803229331970215
F-0.756135880947113
F-0.5876188278198242
tp53
a(F-0.2770552337169647
F-0.7491608262062073
F-0.6016631126403809
tp54
a(F-0.2998542785644531
F-0.7467648386955261
F-0.5936578512191772
tp55
a(F-0.2773864269256592
F-0.7483177185058594
F-0.602558970451355
tp56
a(F-0.31063422560691833
F-0.7482405304908752
F-0.5862102508544922
tp57
a(F-0.3221323490142822
F-0.7371214628219604
F-0.5940391421318054
tp58
a(F-0.3213948607444763
F-0.7349121570587158
F-0.5971677303314209
tp59
a(F-0.282738596200943
F-0.7531011700630188
F-0.594051718711853
tp60
a(F-0.2982834577560425
F-0.7569399476051331
F-0.5814369320869446
tp61
a(F-0.31409478187561035
F-0.7503838539123535
F-0.5816085934638977
tp62
a(F-0.307618111371994
F-0.7569285035133362
F-0.5765677094459534
tp63
a(F-0.2809828221797943
F-0.7514104247093201
F-0.5970184206962585
tp64
a(F-0.31337782740592957
F-0.7367483973503113
F-0.5991628766059875
tp65
a(F-0.30080264806747437
F-0.7527691125869751
F-0.5855393409729004
tp66
a(F-0.3090018630027771
F-0.7465740442276001
F-0.5891900658607483
tp67
a(F-0.2750615179538727
F-0.7440813779830933
F-0.6088381409645081
tp68
a(F-0.2994428277015686
F-0.7552449107170105
F-0.5830429792404175
tp69
a(F-0.2763693630695343
F-0.7674527168273926
F-0.5784776210784912
tp70
a(F-0.27824926376342773
F-0.7590017914772034
F-0.5886369943618774
tp71
a(F-0.2940866947174072
F-0.7559388875961304
F-0.5848669409751892
tp72
a(F-0.29008761048316956
F-0.7678593993186951
F-0.5711751580238342
tp73
a(F-0.30907565355300903
F-0.7705145478248596
F-0.5574761629104614
tp74
a(F-0.29183104634284973
F-0.7495413422584534
F-0.5941570401191711
tp75
a(F-0.27851516008377075
F-0.7618927955627441
F-0.5847638845443726
tp76
a(F-0.280480295419693
F-0.7463172674179077
F-0.6036068797111511
tp77
a(F-0.2972964346408844
F-0.747663676738739
F-0.5938130021095276
tp78
a(F-0.2922417223453522
F-0.7421704530715942
F-0.6031399965286255
tp79
a(F-0.2933928966522217
F-0.7363501191139221
F-0.6096795797348022
tp80
a(F-0.3011071979999542
F-0.736960232257843
F-0.6051644682884216
tp81
a(F-0.2904091775417328
F-0.7469103336334229
F-0.5981534123420715
tp82
a(F-0.29106566309928894
F-0.7517349720001221
F-0.5917562246322632
tp83
a(F-0.2976159453392029
F-0.7446241974830627
F-0.5974610447883606
tp84
a(F-0.29493972659111023
F-0.746645987033844
F-0.596263587474823
tp85
a(F-0.2931578755378723
F-0.7552879452705383
F-0.586172878742218
tp86
a(F-0.2858533263206482
F-0.7537776827812195
F-0.591698408126831
tp87
a(F-0.2926042377948761
F-0.7571637034416199
F-0.5840256214141846
tp88
a(F-0.2924732267856598
F-0.7544040083885193
F-0.587651252746582
tp89
a(F-0.3092663586139679
F-0.7478115558624268
F-0.5874795913696289
tp90
a(F-0.28885573148727417
F-0.7334356307983398
F-0.615332841873169
tp91
a(F-0.2928398549556732
F-0.7525585293769836
F-0.5898308753967285
tp92
a(F-0.2955055236816406
F-0.7406745553016663
F-0.6033884286880493
tp93
a(F-0.29560914635658264
F-0.7435970902442932
F-0.5997321605682373
tp94
a(F-0.28049010038375854
F-0.7520731091499329
F-0.5964153409004211
tp95
a(F-0.2813583016395569
F-0.742303192615509
F-0.6081311702728271
tp96
a(F-0.2883719503879547
F-0.7559903860092163
F-0.5876394510269165
tp97
a(F-0.29558610916137695
F-0.7440924048423767
F-0.5991289019584656
tp98
a(F-0.2836461067199707
F-0.7529523372650146
F-0.5938078761100769
tp99
a(F-0.2968900501728058
F-0.7513545751571655
F-0.58934086561203
tp100
a(F-0.2741183042526245
F-0.7080616354942322
F-0.6507747769355774
tp101
a(F-0.29073667526245117
F-0.7529158592224121
F-0.5904150009155273
tp102
a(F-0.30762264132499695
F-0.7432231307029724
F-0.5941276550292969
tp103
a(F-0.28463050723075867
F-0.7500587701797485
F-0.5969902873039246
tp104
a(F-0.27351078391075134
F-0.754035472869873
F-0.5971786975860596
tp105
a(F-0.27392932772636414
F-0.7561372518539429
F-0.5943224430084229
tp106
a(F-0.29276204109191895
F-0.7563222646713257
F-0.5850358009338379
tp107
a(F-0.29470986127853394
F-0.7452908158302307
F-0.5980700254440308
tp108
a(F-0.31455928087234497
F-0.7440308928489685
F-0.5894663333892822
tp109
a(F-0.26244616508483887
F-0.7520212531089783
F-0.6046371459960938
tp110
a(F-0.2866942286491394
F-0.750565767288208
F-0.5953633189201355
tp111
a(F-0.2847542464733124
F-0.7465062141418457
F-0.6013679504394531
tp112
a(F-0.28261497616767883
F-0.7290686964988708
F-0.6233679056167603
tp113
a(F-0.28313136100769043
F-0.7470576167106628
F-0.6014496088027954
tp114
a(F-0.2778611183166504
F-0.7365722060203552
F-0.6166478395462036
tp115
a(F-0.27561426162719727
F-0.7402571439743042
F-0.6132340431213379
tp116
a(F-0.28061923384666443
F-0.7364909052848816
F-0.615494966506958
tp117
a(F-0.26746442914009094
F-0.7275602221488953
F-0.6317585110664368
tp118
a(F-0.25849103927612305
F-0.7240471839904785
F-0.6394826769828796
tp119
a(F-0.26582786440849304
F-0.7260726690292358
F-0.6341561675071716
tp120
a(F-0.24034394323825836
F-0.7251681089401245
F-0.6452643275260925
tp121
a(F-0.2556534707546234
F-0.7152047157287598
F-0.6504794955253601
tp122
a(F-0.24558041989803314
F-0.7103914022445679
F-0.6595711708068848
tp123
a(F-0.2602097988128662
F-0.7194594740867615
F-0.6439478993415833
tp124
a(F-0.2530069053173065
F-0.720464825630188
F-0.6456917524337769
tp125
a(F-0.26133108139038086
F-0.7153764367103577
F-0.6480298638343811
tp126
a(F-0.24851837754249573
F-0.7186689972877502
F-0.6494255065917969
tp127
a(F-0.2757587134838104
F-0.6867848634719849
F-0.6725203394889832
tp128
a(F-0.27285704016685486
F-0.6683921813964844
F-0.6919543147087097
tp129
a(F-0.28982943296432495
F-0.6708088517189026
F-0.682652473449707
tp130
a(F-0.2684878408908844
F-0.675588071346283
F-0.6866551041603088
tp131
a(F-0.2729930877685547
F-0.6601361036300659
F-0.6997822523117065
tp132
a(F-0.2759171724319458
F-0.668822169303894
F-0.690323531627655
tp133
a(F-0.24243399500846863
F-0.6555299162864685
F-0.7151966691017151
tp134
a(F-0.20982688665390015
F-0.6851016283035278
F-0.697573184967041
tp135
a(F-0.2023102045059204
F-0.6917046904563904
F-0.6932642459869385
tp136
a(F-0.20126688480377197
F-0.7106212973594666
F-0.6741728782653809
tp137
a(F-0.14669784903526306
F-0.743698000907898
F-0.6522215604782104
tp138
a(F-0.15583541989326477
F-0.7512387633323669
F-0.6413702368736267
tp139
a(F-0.13306650519371033
F-0.765205442905426
F-0.6298840045928955
tp140
a(F-0.11248859763145447
F-0.7868967056274414
F-0.6067453026771545
tp141
a(F-0.054398950189352036
F-0.8065669536590576
F-0.5886343717575073
tp142
a(F-0.0309930257499218
F-0.7971800565719604
F-0.6029456257820129
tp143
a(F0.004212507978081703
F-0.7936483025550842
F-0.6083622574806213
tp144
a(F0.04296126961708069
F-0.8027392625808716
F-0.5947806239128113
tp145
a(F0.062080953270196915
F-0.788552463054657
F-0.6118260025978088
tp146
a(F0.07994124293327332
F-0.8090770244598389
F-0.5822403430938721
tp147
a(F0.13514725863933563
F-0.7955625057220459
F-0.5906060934066772
tp148
a(F0.17518579959869385
F-0.7700387835502625
F-0.6134738326072693
tp149
a(F0.17226320505142212
F-0.7753716111183167
F-0.6075558662414551
tp150
a(F0.21658430993556976
F-0.755050539970398
F-0.6188616752624512
tp151
a(F0.2567790746688843
F-0.7545950412750244
F-0.6038634181022644
tp152
a(F0.2633186876773834
F-0.753648042678833
F-0.6022274494171143
tp153
a(F0.3117314577102661
F-0.7374333143234253
F-0.5991790890693665
tp154
a(F0.31457197666168213
F-0.729808509349823
F-0.6069794297218323
tp155
a(F0.3308558166027069
F-0.741807222366333
F-0.5833149552345276
tp156
a(F0.337743878364563
F-0.7369627356529236
F-0.5855041146278381
tp157
a(F0.37095144391059875
F-0.6997392177581787
F-0.6105408072471619
tp158
a(F0.38224220275878906
F-0.6856285929679871
F-0.6195192933082581
tp159
a(F0.3732779622077942
F-0.6916570067405701
F-0.618283212184906
tp160
a(F0.3886784315109253
F-0.6849284768104553
F-0.616280734539032
tp161
a(F0.42119279503822327
F-0.6750684380531311
F-0.6057054400444031
tp162
a(F0.44571447372436523
F-0.6335936188697815
F-0.63237464427948
tp163
a(F0.45926016569137573
F-0.6300533413887024
F-0.6261892318725586
tp164
a(F0.4884268343448639
F-0.6118671894073486
F-0.6221396327018738
tp165
a(F0.4782075583934784
F-0.6099262833595276
F-0.6319078207015991
tp166
a(F0.48135846853256226
F-0.6128433346748352
F-0.626671314239502
tp167
a(F0.5062004327774048
F-0.5943756699562073
F-0.6248829364776611
tp168
a(F0.5090776085853577
F-0.5804986953735352
F-0.6355007886886597
tp169
a(F0.5199426412582397
F-0.5549156069755554
F-0.6494061946868896
tp170
a(F0.5046241879463196
F-0.5594321489334106
F-0.6575636863708496
tp171
a(F0.5257523655891418
F-0.5483628511428833
F-0.6502941846847534
tp172
a(F0.5280933380126953
F-0.5421214699745178
F-0.653622031211853
tp173
a(F0.5253305435180664
F-0.5295185446739197
F-0.666061520576477
tp174
a(F0.5063178539276123
F-0.5329452753067017
F-0.6779465675354004
tp175
a(F0.5304873585700989
F-0.5138900279998779
F-0.6741662621498108
tp176
a(F0.5147538185119629
F-0.5357715487480164
F-0.6693110466003418
tp177
a(F0.5360834002494812
F-0.5206323862075806
F-0.6644972562789917
tp178
a(F0.5532786846160889
F-0.5100947618484497
F-0.6585484147071838
tp179
a(F0.564795196056366
F-0.5040364861488342
F-0.6534169316291809
tp180
a(F0.5666201710700989
F-0.513068437576294
F-0.6447497606277466
tp181
a(F0.5492686033248901
F-0.5359475016593933
F-0.6411430239677429
tp182
a(F0.5654157996177673
F-0.5217195153236389
F-0.6388378143310547
tp183
a(F0.5653396248817444
F-0.5305679440498352
F-0.6315763592720032
tp184
a(F0.568594753742218
F-0.5299326777458191
F-0.6291830539703369
tp185
a(F0.5709764361381531
F-0.5284119248390198
F-0.6283045411109924
tp186
a(F0.5704668760299683
F-0.5273009538650513
F-0.6296992301940918
tp187
a(F0.5693933367729187
F-0.542966365814209
F-0.6172348260879517
tp188
a(F0.5232939124107361
F-0.49499595165252686
F-0.6936444044113159
tp189
a(F0.5385454893112183
F-0.5261708498001099
F-0.6581132411956787
tp190
a(F0.5549755096435547
F-0.5124276280403137
F-0.6553015112876892
tp191
a(F0.5456603169441223
F-0.5493773818016052
F-0.6328027844429016
tp192
a(F0.5301108360290527
F-0.521018385887146
F-0.6689711809158325
tp193
a(F0.5233649015426636
F-0.5314310789108276
F-0.6660857200622559
tp194
a(F0.5380143523216248
F-0.5311282277107239
F-0.6545558571815491
tp195
a(F0.5238862633705139
F-0.5000001192092896
F-0.6895962953567505
tp196
a(F0.5161467790603638
F-0.5771585702896118
F-0.632835328578949
tp197
a(F0.5326316952705383
F-0.5423701405525208
F-0.6497215032577515
tp198
a(F0.5446299910545349
F-0.5023657083511353
F-0.6715705394744873
tp199
a(F0.5383956432342529
F-0.5307129621505737
F-0.6545790433883667
tp200
a(F0.5292559266090393
F-0.5516451001167297
F-0.6446516513824463
tp201
a(F0.5171858668327332
F-0.5501614809036255
F-0.6556227803230286
tp202
a(F0.5303768515586853
F-0.5451574325561523
F-0.6492331027984619
tp203
a(F0.524948000907898
F-0.536742091178894
F-0.6605584621429443
tp204
a(F0.5129122138023376
F-0.5461072325706482
F-0.662335216999054
tp205
a(F0.519646406173706
F-0.5495045781135559
F-0.654226541519165
tp206
a(F0.5321133136749268
F-0.5456728339195251
F-0.6473765969276428
tp207
a(F0.5022271275520325
F-0.5544347167015076
F-0.6636037826538086
tp208
a(F0.5187533497810364
F-0.5590940117835999
F-0.6467680335044861
tp209
a(F0.4864101707935333
F-0.5824421048164368
F-0.6512805819511414
tp210
a(F0.5042371153831482
F-0.5629964470863342
F-0.6548129916191101
tp211
a(F0.479829877614975
F-0.5628218054771423
F-0.6730490326881409
tp212
a(F0.47383201122283936
F-0.5834771394729614
F-0.6595737934112549
tp213
a(F0.4960228502750397
F-0.5804648995399475
F-0.6457722783088684
tp214
a(F0.4812104105949402
F-0.579603374004364
F-0.6576447486877441
tp215
a(F0.4929044544696808
F-0.5873821973800659
F-0.6418935060501099
tp216
a(F0.4941578209400177
F-0.5837509632110596
F-0.6442381143569946
tp217
a(F0.47860023379325867
F-0.6006088852882385
F-0.6404770612716675
tp218
a(F0.4574740529060364
F-0.598773181438446
F-0.6574103236198425
tp219
a(F0.4895249307155609
F-0.586262583732605
F-0.6454933285713196
tp220
a(F0.49619603157043457
F-0.5796628594398499
F-0.6463593244552612
tp221
a(F0.48832374811172485
F-0.5753126740455627
F-0.6561670899391174
tp222
a(F0.47750726342201233
F-0.5837672352790833
F-0.656660258769989
tp223
a(F0.49723389744758606
F-0.5815449953079224
F-0.643866240978241
tp224
a(F0.4856020212173462
F-0.586237907409668
F-0.6484718918800354
tp225
a(F0.4782544672489166
F-0.5718011856079102
F-0.6665703654289246
tp226
a(F0.4993586838245392
F-0.5808725357055664
F-0.642828106880188
tp227
a(F0.48314958810806274
F-0.5910817384719849
F-0.645901620388031
tp228
a(F0.46643081307411194
F-0.585116446018219
F-0.6633860468864441
tp229
a(F0.4653831720352173
F-0.5914196372032166
F-0.6585144400596619
tp230
a(F0.49729177355766296
F-0.5794520378112793
F-0.6457059383392334
tp231
a(F0.48511356115341187
F-0.5981456637382507
F-0.6378766894340515
tp232
a(F0.49011459946632385
F-0.5866027474403381
F-0.6447362899780273
tp233
a(F0.48907271027565
F-0.5951322317123413
F-0.6376720666885376
tp234
a(F0.48822447657585144
F-0.5801438093185425
F-0.6519739031791687
tp235
a(F0.4981749653816223
F-0.5720601677894592
F-0.6515895128250122
tp236
a(F0.48972389101982117
F-0.5754194855690002
F-0.6550289988517761
tp237
a(F0.4740963280200958
F-0.6186927556991577
F-0.6264597773551941
tp238
a(F0.4868605434894562
F-0.5825753211975098
F-0.650824785232544
tp239
a(F0.4819476008415222
F-0.5863966941833496
F-0.6510494351387024
tp240
a(F0.49726513028144836
F-0.5696091651916504
F-0.6544255614280701
tp241
a(F0.49785393476486206
F-0.5714395046234131
F-0.652379035949707
tp242
a(F0.4924759566783905
F-0.5748866200447083
F-0.6534315347671509
tp243
a(F0.49483391642570496
F-0.5720769762992859
F-0.6541157364845276
tp244
a(F0.4829091429710388
F-0.5714022517204285
F-0.6635497808456421
tp245
a(F0.49015870690345764
F-0.5762513279914856
F-0.6539716124534607
tp246
a(F0.49286550283432007
F-0.5828387141227722
F-0.6460515856742859
tp247
a(F0.5028974413871765
F-0.5718644261360168
F-0.6481244564056396
tp248
a(F0.4850383698940277
F-0.6013638973236084
F-0.6349009275436401
tp249
a(F0.4775986075401306
F-0.5993947386741638
F-0.6423594355583191
tp250
a(F0.49409082531929016
F-0.5876268744468689
F-0.6407564878463745
tp251
a(F0.5023454427719116
F-0.5835063457489014
F-0.6380983591079712
tp252
a(F0.4872065782546997
F-0.5741572380065918
F-0.6580069661140442
tp253
a(F0.4926592707633972
F-0.5694709420204163
F-0.658019483089447
tp254
a(F0.48972079157829285
F-0.5782138109207153
F-0.6525660157203674
tp255
a(F0.4848818778991699
F-0.5899274349212646
F-0.6456586122512817
tp256
a(F0.4978056252002716
F-0.5818800330162048
F-0.6431214213371277
tp257
a(F0.4840247631072998
F-0.5952389240264893
F-0.6414129734039307
tp258
a(F0.49082738161087036
F-0.5824351906776428
F-0.6479642391204834
tp259
a(F0.47955915331840515
F-0.5946694612503052
F-0.6452836990356445
tp260
a(F0.4794654846191406
F-0.5824764966964722
F-0.6563794612884521
tp261
a(F0.49975183606147766
F-0.5972464680671692
F-0.6273313760757446
tp262
a(F0.4982208013534546
F-0.5831755995750427
F-0.6416246891021729
tp263
a(F0.4758513569831848
F-0.5913764834403992
F-0.6510295867919922
tp264
a(F0.493466854095459
F-0.581077516078949
F-0.6471781134605408
tp265
a(F0.4894388020038605
F-0.6038665175437927
F-0.6291223168373108
tp266
a(F0.48285919427871704
F-0.5945798754692078
F-0.6429009437561035
tp267
a(F0.4937489926815033
F-0.5818777084350586
F-0.6462432742118835
tp268
a(F0.48376187682151794
F-0.5862011909484863
F-0.649878978729248
tp269
a(F0.4874120354652405
F-0.5946850776672363
F-0.6393583416938782
tp270
a(F0.4650133550167084
F-0.5998278856277466
F-0.6511291265487671
tp271
a(F0.5020878911018372
F-0.5765534043312073
F-0.6445882320404053
tp272
a(F0.49174487590789795
F-0.5909446477890015
F-0.6395087838172913
tp273
a(F0.4803165793418884
F-0.5953760147094727
F-0.6440678834915161
tp274
a(F0.5017215609550476
F-0.5861314535140991
F-0.6361802816390991
tp275
a(F0.4954337179660797
F-0.5856999158859253
F-0.6414834856987
tp276
a(F0.49110856652259827
F-0.6033766865730286
F-0.6282904148101807
tp277
a(F0.5051915645599365
F-0.578388512134552
F-0.6405062079429626
tp278
a(F0.49169376492500305
F-0.5811433792114258
F-0.6484671831130981
tp279
a(F0.48111575841903687
F-0.5768765211105347
F-0.660106897354126
tp280
a(F0.4788517355918884
F-0.5829288363456726
F-0.656425952911377
tp281
a(F0.49292486906051636
F-0.5949991345405579
F-0.6348236203193665
tp282
a(F0.5029732584953308
F-0.5753469467163086
F-0.6449759602546692
tp283
a(F0.46821677684783936
F-0.591330885887146
F-0.6565827131271362
tp284
a(F0.48763880133628845
F-0.5938724875450134
F-0.6399405598640442
tp285
a(F0.4848719835281372
F-0.5854631066322327
F-0.6497169137001038
tp286
a(F0.4851319491863251
F-0.5813246369361877
F-0.6532293558120728
tp287
a(F0.5008403062820435
F-0.5743491053581238
F-0.6475200057029724
tp288
a(F0.48554039001464844
F-0.5829143524169922
F-0.6515071392059326
tp289
a(F0.4830503463745117
F-0.5999370217323303
F-0.6377599835395813
tp290
a(F0.5055757761001587
F-0.5818682909011841
F-0.6370418071746826
tp291
a(F0.49177855253219604
F-0.5910693407058716
F-0.6393675208091736
tp292
a(F0.49899187684059143
F-0.5891485810279846
F-0.6355399489402771
tp293
a(F0.4870782196521759
F-0.5939322113990784
F-0.6403118968009949
tp294
a(F0.48020949959754944
F-0.5950291752815247
F-0.6444680690765381
tp295
a(F0.4988430440425873
F-0.5806301236152649
F-0.6434471607208252
tp296
a(F0.4885331094264984
F-0.575869083404541
F-0.655522882938385
tp297
a(F0.47644656896591187
F-0.5781596302986145
F-0.662367045879364
tp298
a(F0.49431416392326355
F-0.5914047956466675
F-0.637097954750061
tp299
a(F0.5011128783226013
F-0.5804791450500488
F-0.6418176889419556
tp300
a(F0.476397842168808
F-0.5844082236289978
F-0.6568958759307861
tp301
a(F0.4806506335735321
F-0.5833621621131897
F-0.6547240018844604
tp302
a(F0.4892618954181671
F-0.5825970768928528
F-0.6490018367767334
tp303
a(F0.5044753551483154
F-0.5791082978248596
F-0.6404203176498413
tp304
a(F0.49111470580101013
F-0.5832265615463257
F-0.6470341682434082
tp305
a(F0.4983324110507965
F-0.5795459151268005
F-0.6448187232017517
tp306
a(F0.4853057861328125
F-0.5890310406684875
F-0.6461583971977234
tp307
a(F0.4989576041698456
F-0.5771624445915222
F-0.6464710235595703
tp308
a(F0.4844852387905121
F-0.6071316599845886
F-0.6298136115074158
tp309
a(F0.47484779357910156
F-0.6044173240661621
F-0.6396868824958801
tp310
a(F0.4663448631763458
F-0.5767422318458557
F-0.6707390546798706
tp311
a(F0.495839923620224
F-0.5835780501365662
F-0.6431014537811279
tp312
a(F0.48361915349960327
F-0.5826594233512878
F-0.653161883354187
tp313
a(F0.47716644406318665
F-0.5820587277412415
F-0.6584222316741943
tp314
a(F0.4890579879283905
F-0.5850627422332764
F-0.6469342708587646
tp315
a(F0.49115386605262756
F-0.5956836938858032
F-0.6355539560317993
tp316
a(F0.4691648483276367
F-0.5930631160736084
F-0.654339611530304
tp317
a(F0.47727036476135254
F-0.5988631844520569
F-0.6430987119674683
tp318
a(F0.48822835087776184
F-0.6001347303390503
F-0.6336177587509155
tp319
a(F0.48398151993751526
F-0.5856924653053284
F-0.650174081325531
tp320
a(F0.49755287170410156
F-0.556577205657959
F-0.6653292775154114
tp321
a(F0.4615088701248169
F-0.5865908861160278
F-0.6655228734016418
tp322
a(F0.49006977677345276
F-0.5874195694923401
F-0.6440263390541077
tp323
a(F0.5063539147377014
F-0.5747735500335693
F-0.6428382396697998
tp324
a(F0.5013288855552673
F-0.5857522487640381
F-0.6368387341499329
tp325
a(F0.5029784440994263
F-0.5701805353164673
F-0.6495437026023865
tp326
a(F0.4936298429965973
F-0.585640549659729
F-0.6429266929626465
tp327
a(F0.4766179919242859
F-0.5857445001602173
F-0.655544638633728
tp328
a(F0.4892348349094391
F-0.5884350538253784
F-0.6437340974807739
tp329
a(F0.4990416467189789
F-0.5857561230659485
F-0.638629138469696
tp330
a(F0.49143990874290466
F-0.5912117958068848
F-0.6394962668418884
tp331
a(F0.4972638785839081
F-0.5802488923072815
F-0.6450114846229553
tp332
a(F0.49540457129478455
F-0.5822776556015015
F-0.6446139216423035
tp333
a(F0.47983255982398987
F-0.5848482847213745
F-0.6539978981018066
tp334
a(F0.48597344756126404
F-0.5938815474510193
F-0.6411978006362915
tp335
a(F0.4953097105026245
F-0.5891447067260742
F-0.6384174823760986
tp336
a(F0.4881557524204254
F-0.6020838618278503
F-0.6318221092224121
tp337
a(F0.4928779900074005
F-0.5937560796737671
F-0.6360228061676025
tp338
a(F0.45005348324775696
F-0.5573656558990479
F-0.6977072358131409
tp339
a(F0.4882814586162567
F-0.5910278558731079
F-0.6420804858207703
tp340
a(F0.4930415451526642
F-0.5822741389274597
F-0.646426260471344
tp341
a(F0.48765456676483154
F-0.5919796228408813
F-0.6416798830032349
tp342
a(F0.4859671890735626
F-0.5756740570068359
F-0.6575980186462402
tp343
a(F0.4870471954345703
F-0.5851574540138245
F-0.6483638882637024
tp344
a(F0.49974581599235535
F-0.5838565230369568
F-0.6398168802261353
tp345
a(F0.4848804473876953
F-0.592224657535553
F-0.6435532569885254
tp346
a(F0.4935396909713745
F-0.5925950407981873
F-0.6365921497344971
tp347
a(F0.49261701107025146
F-0.5869931578636169
F-0.6424699425697327
tp348
a(F0.4884922206401825
F-0.5849948525428772
F-0.6474229097366333
tp349
a(F0.49243277311325073
F-0.5832192301750183
F-0.6460381746292114
tp350
a(F0.4750822186470032
F-0.5922254323959351
F-0.6508194208145142
tp351
a(F0.49956104159355164
F-0.5795803070068359
F-0.6438364386558533
tp352
a(F0.4819403886795044
F-0.588573694229126
F-0.6490873694419861
tp353
a(F0.47977137565612793
F-0.5927107930183411
F-0.6469260454177856
tp354
a(F0.46104860305786133
F-0.6014269590377808
F-0.6524720788002014
tp355
a(F0.49415531754493713
F-0.5860422253608704
F-0.6421565413475037
tp356
a(F0.5022662281990051
F-0.5705007910728455
F-0.6498133540153503
tp357
a(F0.47704967856407166
F-0.5898087024688721
F-0.6515744924545288
tp358
a(F0.4881754219532013
F-0.5898074507713318
F-0.6432822346687317
tp359
a(F0.47766584157943726
F-0.579639196395874
F-0.6601922512054443
tp360
a(F0.4892958998680115
F-0.5823134779930115
F-0.6492308378219604
tp361
a(F0.4956795275211334
F-0.5899782180786133
F-0.6373597383499146
tp362
a(F0.4867658317089081
F-0.5904130339622498
F-0.643794596195221
tp363
a(F0.4799937605857849
F-0.5846937894821167
F-0.6540176868438721
tp364
a(F0.5004560351371765
F-0.5833394527435303
F-0.6397334337234497
tp365
a(F0.49726542830467224
F-0.5947697758674622
F-0.6316455602645874
tp366
a(F0.4845834970474243
F-0.5983696579933167
F-0.6380694508552551
tp367
a(F0.4760400354862213
F-0.5954722166061401
F-0.6471465229988098
tp368
a(F0.49654242396354675
F-0.5871965289115906
F-0.639254093170166
tp369
a(F0.47719356417655945
F-0.5899428129196167
F-0.6513476371765137
tp370
a(F0.506842851638794
F-0.5800391435623169
F-0.6377028822898865
tp371
a(F0.49198487401008606
F-0.5919495224952698
F-0.6383938789367676
tp372
a(F0.4960111975669861
F-0.5914153456687927
F-0.635767936706543
tp373
a(F0.49778956174850464
F-0.586340069770813
F-0.6390702724456787
tp374
a(F0.49230822920799255
F-0.587610125541687
F-0.6421425342559814
tp375
a(F0.48191916942596436
F-0.5845344066619873
F-0.6527431011199951
tp376
a(F0.49238550662994385
F-0.5867186784744263
F-0.6428977847099304
tp377
a(F0.49277564883232117
F-0.5915306210517883
F-0.6381722092628479
tp378
a(F0.49729591608047485
F-0.595062255859375
F-0.6313459277153015
tp379
a(F0.4700072705745697
F-0.5948184132575989
F-0.6521381735801697
tp380
a(F0.494575172662735
F-0.5771114826202393
F-0.6498751044273376
tp381
a(F0.49446719884872437
F-0.5691964626312256
F-0.6568998694419861
tp382
a(F0.48902106285095215
F-0.5959272980690002
F-0.6369685530662537
tp383
a(F0.49019840359687805
F-0.5789253115653992
F-0.6515757441520691
tp384
a(F0.4945797622203827
F-0.5882084369659424
F-0.639845073223114
tp385
a(F0.4951041638851166
F-0.5840950012207031
F-0.6431990265846252
tp386
a(F0.4791523218154907
F-0.5916029214859009
F-0.6483972668647766
tp387
a(F0.47884756326675415
F-0.595814049243927
F-0.6447561979293823
tp388
a(F0.4963618218898773
F-0.5860381722450256
F-0.6404561996459961
tp389
a(F0.493746817111969
F-0.6003695130348206
F-0.6291030645370483
tp390
a(F0.49503397941589355
F-0.593297004699707
F-0.6347755193710327
tp391
a(F0.49378836154937744
F-0.5823889374732971
F-0.645752489566803
tp392
a(F0.4757658839225769
F-0.5946074724197388
F-0.6481425762176514
tp393
a(F0.4996754229068756
F-0.5806847810745239
F-0.6427515745162964
tp394
a(F0.48878979682922363
F-0.5999259948730469
F-0.6333824396133423
tp395
a(F0.47393885254859924
F-0.5792515873908997
F-0.6632115840911865
tp396
a(F0.48083925247192383
F-0.5832499265670776
F-0.6546854972839355
tp397
a(F0.4938987195491791
F-0.5826728940010071
F-0.6454117894172668
tp398
a(F0.4896908402442932
F-0.5775519013404846
F-0.6531743407249451
tp399
a(F0.46628233790397644
F-0.5843863487243652
F-0.664133608341217
tp400
a(F0.4685525596141815
F-0.5910852551460266
F-0.6565642952919006
tp401
a(F0.502312183380127
F-0.5819196105003357
F-0.6395716667175293
tp402
a(F0.48683202266693115
F-0.5786697268486023
F-0.6543208956718445
tp403
a(F0.4950151741504669
F-0.5865899324417114
F-0.6409931778907776
tp404
a(F0.473482221364975
F-0.584782063961029
F-0.6586687564849854
tp405
a(F0.4652416706085205
F-0.5995156764984131
F-0.6512535810470581
tp406
a(F0.4763788878917694
F-0.5903284549713135
F-0.6515945792198181
tp407
a(F0.4804745614528656
F-0.6002197861671448
F-0.6394375562667847
tp408
a(F0.4926178455352783
F-0.5964449048042297
F-0.6337042450904846
tp409
a(F0.4935595691204071
F-0.6107770204544067
F-0.6191530227661133
tp410
a(F0.4984198212623596
F-0.5821627378463745
F-0.6423895359039307
tp411
a(F0.48781269788742065
F-0.5931122899055481
F-0.6405127048492432
tp412
a(F0.48249030113220215
F-0.5950961709022522
F-0.6427004337310791
tp413
a(F0.47945335507392883
F-0.5884607434272766
F-0.6510286927223206
tp414
a(F0.498337984085083
F-0.5792707204818726
F-0.645061731338501
tp415
a(F0.4819909632205963
F-0.5935308933258057
F-0.6445198655128479
tp416
a(F0.47715097665786743
F-0.5730600953102112
F-0.6662799715995789
tp417
a(F0.5037899017333984
F-0.5851173996925354
F-0.6354787945747375
tp418
a(F0.48229727149009705
F-0.5892469882965088
F-0.6482108235359192
tp419
a(F0.4947873651981354
F-0.5806279182434082
F-0.6465730667114258
tp420
a(F0.4855042099952698
F-0.5940983891487122
F-0.6413523554801941
tp421
a(F0.48374637961387634
F-0.5960648655891418
F-0.6408557295799255
tp422
a(F0.4815973937511444
F-0.5976013541221619
F-0.6410433053970337
tp423
a(F0.5002618432044983
F-0.5754284262657166
F-0.6470085382461548
tp424
a(F0.4930805563926697
F-0.5897477269172668
F-0.6395851969718933
tp425
a(F0.4905186891555786
F-0.5914247632026672
F-0.6400063633918762
tp426
a(F0.4865230619907379
F-0.5836094617843628
F-0.6501501798629761
tp427
a(F0.46789875626564026
F-0.6036507487297058
F-0.645504891872406
tp428
a(F0.47805383801460266
F-0.5953070521354675
F-0.6458125710487366
tp429
a(F0.48001572489738464
F-0.6077743172645569
F-0.632610023021698
tp430
a(F0.4703819155693054
F-0.5822595357894897
F-0.6631097793579102
tp431
a(F0.4685472548007965
F-0.5853811502456665
F-0.661658763885498
tp432
a(F0.47948405146598816
F-0.5805612802505493
F-0.6580605506896973
tp433
a(F0.49032753705978394
F-0.5943397879600525
F-0.6374473571777344
tp434
a(F0.5018553733825684
F-0.5826578140258789
F-0.639258086681366
tp435
a(F0.4907240867614746
F-0.5949289202690125
F-0.6365921497344971
tp436
a(F0.4743918478488922
F-0.5986847281455994
F-0.6453905701637268
tp437
a(F0.482769638299942
F-0.572079062461853
F-0.6630678176879883
tp438
a(F0.5067585706710815
F-0.5909751057624817
F-0.62764972448349
tp439
a(F0.49016955494880676
F-0.511886715888977
F-0.7054826617240906
tp440
a(F0.4783656895160675
F-0.6010744571685791
F-0.6402153968811035
tp441
a(F0.48491397500038147
F-0.597964882850647
F-0.6381977796554565
tp442
a(F0.47938787937164307
F-0.5967086553573608
F-0.6435263752937317
tp443
a(F0.48705339431762695
F-0.5917845368385315
F-0.6423161029815674
tp444
a(F0.48245084285736084
F-0.605084240436554
F-0.6333358287811279
tp445
a(F0.4778807759284973
F-0.586524486541748
F-0.6539257764816284
tp446
a(F0.4859555661678314
F-0.586702287197113
F-0.6477866172790527
tp447
a(F0.4675475060939789
F-0.5990871787071228
F-0.6499953269958496
tp448
a(F0.4573664963245392
F-0.5973485112190247
F-0.6587796211242676
tp449
a(F0.48655858635902405
F-0.5882748961448669
F-0.6459050178527832
tp450
a(F0.48470333218574524
F-0.5915883183479309
F-0.6442716717720032
tp451
a(F0.48235681653022766
F-0.5862690210342407
F-0.6508613228797913
tp452
a(F0.4839584529399872
F-0.594768762588501
F-0.6418989896774292
tp453
a(F0.4835168123245239
F-0.5996760129928589
F-0.6376520991325378
tp454
a(F0.5075269937515259
F-0.5852884650230408
F-0.6323399543762207
tp455
a(F0.4824485778808594
F-0.5848960876464844
F-0.6520275473594666
tp456
a(F0.5126215219497681
F-0.584763765335083
F-0.6287053823471069
tp457
a(F0.48691365122795105
F-0.5794398784637451
F-0.6535781025886536
tp458
a(F0.4861313998699188
F-0.5827937722206116
F-0.651174008846283
tp459
a(F0.4879898130893707
F-0.5726355314254761
F-0.6587521433830261
tp460
a(F0.46443676948547363
F-0.5986009836196899
F-0.652667760848999
tp461
a(F0.4929320812225342
F-0.5912100672721863
F-0.6383482813835144
tp462
a(F0.48766767978668213
F-0.5739145874977112
F-0.6578771471977234
tp463
a(F0.4911488890647888
F-0.5795816779136658
F-0.6502750515937805
tp464
a(F0.4813835918903351
F-0.5859982967376709
F-0.6518250107765198
tp465
a(F0.4686145484447479
F-0.5960806012153625
F-0.6519879102706909
tp466
a(F0.4960937798023224
F-0.5835745930671692
F-0.6429086923599243
tp467
a(F0.4968254566192627
F-0.5716511607170105
F-0.6529773473739624
tp468
a(F0.4862232804298401
F-0.5986353754997253
F-0.6365708708763123
tp469
a(F0.4866059422492981
F-0.5906581878662109
F-0.6436906456947327
tp470
a(F0.49400970339775085
F-0.585260272026062
F-0.6429811120033264
tp471
a(F0.4794046878814697
F-0.5928770303726196
F-0.6470454931259155
tp472
a(F0.47833487391471863
F-0.5863071084022522
F-0.653788685798645
tp473
a(F0.49130821228027344
F-0.5878590941429138
F-0.6426801681518555
tp474
a(F0.4841645061969757
F-0.606667160987854
F-0.6305073499679565
tp475
a(F0.4711741805076599
F-0.5940644145011902
F-0.651983380317688
tp476
a(F0.4802243113517761
F-0.6054357886314392
F-0.6346905827522278
tp477
a(F0.4963352382183075
F-0.6118118762969971
F-0.6159038543701172
tp478
a(F0.49770182371139526
F-0.6136915683746338
F-0.6129237413406372
tp479
a(F0.4751460552215576
F-0.5990840792655945
F-0.6444644331932068
tp480
a(F0.45793211460113525
F-0.5398024916648865
F-0.7063366174697876
tp481
a(F0.4905540347099304
F-0.5649666786193848
F-0.6634526252746582
tp482
a(F0.5004220008850098
F-0.5823259353637695
F-0.6406826376914978
tp483
a(F0.47843748331069946
F-0.5907202959060669
F-0.649728536605835
tp484
a(F0.4925653338432312
F-0.5845655798912048
F-0.6447188854217529
tp485
a(F0.49650871753692627
F-0.586214542388916
F-0.6401808261871338
tp486
a(F0.4841749966144562
F-0.5779549479484558
F-0.6569190621376038
tp487
a(F0.4857173264026642
F-0.6114998459815979
F-0.6246170997619629
tp488
a(F0.4808995723724365
F-0.6215170621871948
F-0.618427038192749
tp489
a(F0.5012209415435791
F-0.5859595537185669
F-0.6367329359054565
tp490
a(F0.4944024384021759
F-0.5813929438591003
F-0.6461797952651978
tp491
a(F0.49487486481666565
F-0.5944488644599915
F-0.6338212490081787
tp492
a(F0.4897967576980591
F-0.5999373197555542
F-0.6325932741165161
tp493
a(F0.49547460675239563
F-0.5798855423927307
F-0.6467129588127136
tp494
a(F0.4792165756225586
F-0.596599280834198
F-0.6437552571296692
tp495
a(F0.49103960394859314
F-0.5893557071685791
F-0.6415138840675354
tp496
a(F0.4833981990814209
F-0.5857049822807312
F-0.6505964994430542
tp497
a(F0.5046609044075012
F-0.5711451172828674
F-0.6473875045776367
tp498
a(F0.4958212673664093
F-0.5769721865653992
F-0.649048924446106
tp499
a(F0.48235273361206055
F-0.5852659940719604
F-0.6517665386199951
tp500
a(F0.44401440024375916
F-0.5503672957420349
F-0.707069456577301
tp501
a(F0.4804455637931824
F-0.5953216552734375
F-0.6440218687057495
tp502
a(F0.4911106824874878
F-0.5858019590377808
F-0.6447064876556396
tp503
a(F0.47068271040916443
F-0.5876598954200745
F-0.6581136584281921
tp504
a(F0.5047538876533508
F-0.5762465596199036
F-0.6427779793739319
tp505
a(F0.4982394874095917
F-0.5853272676467896
F-0.639647901058197
tp506
a(F0.477241575717926
F-0.5927769541740417
F-0.6487340331077576
tp507
a(F0.4732542634010315
F-0.598015546798706
F-0.6468444466590881
tp508
a(F0.49790698289871216
F-0.585256040096283
F-0.639971911907196
tp509
a(F0.49409952759742737
F-0.5783884525299072
F-0.6491013169288635
tp510
a(F0.4961412250995636
F-0.5848613977432251
F-0.6417016983032227
tp511
a(F0.49664920568466187
F-0.5975253582000732
F-0.6295260190963745
tp512
a(F0.49398553371429443
F-0.5794939994812012
F-0.6482013463973999
tp513
a(F0.47474798560142517
F-0.5959770083427429
F-0.6476308703422546
tp514
a(F0.4880327880382538
F-0.6051035523414612
F-0.6290259957313538
tp515
a(F0.5134947896003723
F-0.562342643737793
F-0.6481464505195618
tp516
a(F0.474280446767807
F-0.5989888310432434
F-0.6451903581619263
tp517
a(F0.4930966794490814
F-0.58827143907547
F-0.6409309506416321
tp518
a(F0.48814889788627625
F-0.5804327130317688
F-0.6517733335494995
tp519
a(F0.48399844765663147
F-0.5976300239562988
F-0.6392057538032532
tp520
a(F0.48137331008911133
F-0.5806453824043274
F-0.6566053628921509
tp521
a(F0.49691131711006165
F-0.5866878032684326
F-0.6394345164299011
tp522
a(F0.5137882232666016
F-0.5791003108024597
F-0.6329805850982666
tp523
a(F0.4847952723503113
F-0.5940200090408325
F-0.641960859298706
tp524
a(F0.46420931816101074
F-0.6065652966499329
F-0.6454365253448486
tp525
a(F0.4902004897594452
F-0.5965834856033325
F-0.6354460716247559
tp526
a(F0.49211621284484863
F-0.5863239169120789
F-0.6434640288352966
tp527
a(F0.49542319774627686
F-0.590505063533783
F-0.6370711326599121
tp528
a(F0.4933909773826599
F-0.5744245648384094
F-0.6531475782394409
tp529
a(F0.4647561311721802
F-0.5939720869064331
F-0.6566573977470398
tp530
a(F0.4725564420223236
F-0.5879033803939819
F-0.6565514802932739
tp531
a(F0.5022048354148865
F-0.582430362701416
F-0.6391910314559937
tp532
a(F0.4862995147705078
F-0.6042185425758362
F-0.6312153339385986
tp533
a(F0.49159151315689087
F-0.5939130783081055
F-0.6368712782859802
tp534
a(F0.49167776107788086
F-0.5914979577064514
F-0.63904869556427
tp535
a(F0.4896906316280365
F-0.5936222076416016
F-0.6386045813560486
tp536
a(F0.49642395973205566
F-0.596774160861969
F-0.6304156184196472
tp537
a(F0.48636820912361145
F-0.5903696417808533
F-0.6441348791122437
tp538
a(F0.4967321455478668
F-0.5857105255126953
F-0.6404688954353333
tp539
a(F0.47105687856674194
F-0.592826247215271
F-0.653194010257721
tp540
a(F0.4724000096321106
F-0.5863946676254272
F-0.6580118536949158
tp541
a(F0.4809100329875946
F-0.6050440669059753
F-0.6345449090003967
tp542
a(F0.5055103302001953
F-0.5866841673851013
F-0.6326619386672974
tp543
a(F0.5018923282623291
F-0.5699025392532349
F-0.6506268382072449
tp544
a(F0.49493372440338135
F-0.5929806232452393
F-0.6351493000984192
tp545
a(F0.5043795704841614
F-0.5825650691986084
F-0.637353241443634
tp546
a(F0.4890071749687195
F-0.5833925604820251
F-0.6484789848327637
tp547
a(F0.4769243896007538
F-0.5809192061424255
F-0.65960294008255
tp548
a(F0.493608295917511
F-0.5823317766189575
F-0.6459417343139648
tp549
a(F0.4996775984764099
F-0.5876227021217346
F-0.6364133358001709
tp550
a(F0.4980500340461731
F-0.5722717046737671
F-0.6514992117881775
tp551
a(F0.48674076795578003
F-0.5907727479934692
F-0.6434836387634277
tp552
a(F0.49278372526168823
F-0.5799483060836792
F-0.6487095355987549
tp553
a(F0.47512108087539673
F-0.5832748413085938
F-0.6588250398635864
tp554
a(F0.49033722281455994
F-0.5932058691978455
F-0.6384953260421753
tp555
a(F0.4947209656238556
F-0.5912681221961975
F-0.6369091868400574
tp556
a(F0.49234917759895325
F-0.5994383692741394
F-0.6310831904411316
tp557
a(F0.49458080530166626
F-0.5853250026702881
F-0.642483115196228
tp558
a(F0.4932636320590973
F-0.5872645974159241
F-0.6417251825332642
tp559
a(F0.5040096044540405
F-0.5916769504547119
F-0.6291999816894531
tp560
a(F0.4913850724697113
F-0.5945327281951904
F-0.636452317237854
tp561
a(F0.48931869864463806
F-0.5951254367828369
F-0.6374896168708801
tp562
a(F0.4973281919956207
F-0.5282613039016724
F-0.6881893873214722
tp563
a(F0.5034521818161011
F-0.5798714756965637
F-0.6405348777770996
tp564
a(F0.4968612790107727
F-0.5924776196479797
F-0.6341129541397095
tp565
a(F0.5088621973991394
F-0.605194628238678
F-0.6122081279754639
tp566
a(F0.5075276494026184
F-0.6033807396888733
F-0.6150994896888733
tp567
a(F0.4936065077781677
F-0.5781201720237732
F-0.649715006351471
tp568
a(F0.500052273273468
F-0.5867094993591309
F-0.6369612216949463
tp569
a(F0.5088073015213013
F-0.5863765478134155
F-0.6302997469902039
tp570
a(F0.4937126636505127
F-0.5902611613273621
F-0.6386231780052185
tp571
a(F0.49137359857559204
F-0.5901345014572144
F-0.6405413150787354
tp572
a(F0.4780883193016052
F-0.5715421438217163
F-0.6669116616249084
tp573
a(F0.5068618059158325
F-0.5755864977836609
F-0.6417096853256226
tp574
a(F0.503602147102356
F-0.5872941613197327
F-0.6336168646812439
tp575
a(F0.49483320116996765
F-0.5757957100868225
F-0.6508451700210571
tp576
a(F0.4917207360267639
F-0.5882248878479004
F-0.6420298218727112
tp577
a(F0.49475666880607605
F-0.5876820087432861
F-0.640191912651062
tp578
a(F0.4920031726360321
F-0.5785549879074097
F-0.6505436897277832
tp579
a(F0.48717573285102844
F-0.5936517715454102
F-0.6404977440834045
tp580
a(F0.48830363154411316
F-0.5785001516342163
F-0.6533735394477844
tp581
a(F0.5026331543922424
F-0.594841480255127
F-0.6273144483566284
tp582
a(F0.5036260485649109
F-0.5895401239395142
F-0.6315086483955383
tp583
a(F0.4846162796020508
F-0.5942200422286987
F-0.6419109106063843
tp584
a(F0.4797740578651428
F-0.578123152256012
F-0.6599928140640259
tp585
a(F0.49158576130867004
F-0.5771922469139099
F-0.6520678997039795
tp586
a(F0.5109949707984924
F-0.59369957447052
F-0.6216148138046265
tp587
a(F0.486652672290802
F-0.5808318257331848
F-0.6525363326072693
tp588
a(F0.49045073986053467
F-0.5922682285308838
F-0.6392781138420105
tp589
a(F0.48033007979393005
F-0.6017751693725586
F-0.6380828619003296
tp590
a(F0.5064529180526733
F-0.5781862735748291
F-0.6396921873092651
tp591
a(F0.5121027827262878
F-0.5734351873397827
F-0.6394705772399902
tp592
a(F0.4999666213989258
F-0.6007375717163086
F-0.623816967010498
tp593
a(F0.49217745661735535
F-0.5936475396156311
F-0.6366663575172424
tp594
a(F0.5039314031600952
F-0.5809054970741272
F-0.6392197012901306
tp595
a(F0.4969819486141205
F-0.5853711366653442
F-0.6405853629112244
tp596
a(F0.49426767230033875
F-0.6011444926261902
F-0.6279528737068176
tp597
a(F0.5015783905982971
F-0.5862331390380859
F-0.6361994743347168
tp598
a(F0.4861156642436981
F-0.5767505764961243
F-0.6565442085266113
tp599
a(F0.4895428419113159
F-0.5946279764175415
F-0.6377816200256348
tp600
a(F0.4968189597129822
F-0.5944914817810059
F-0.632258415222168
tp601
a(F0.48277172446250916
F-0.5844656229019165
F-0.6521742939949036
tp602
a(F0.4726707935333252
F-0.5829849243164062
F-0.660841166973114
tp603
a(F0.4914061725139618
F-0.5899546146392822
F-0.64068204164505
tp604
a(F0.48465436697006226
F-0.5836339592933655
F-0.6515224575996399
tp605
a(F0.4976022243499756
F-0.5870397090911865
F-0.6385737657546997
tp606
a(F0.49135175347328186
F-0.5898213386535645
F-0.6408464908599854
tp607
a(F0.5047077536582947
F-0.5649036765098572
F-0.6528046131134033
tp608
a(F0.48988014459609985
F-0.5986810326576233
F-0.633717954158783
tp609
a(F0.4938759207725525
F-0.5863456726074219
F-0.6420943737030029
tp610
a(F0.5068104863166809
F-0.5839603543281555
F-0.6341400742530823
tp611
a(F0.4788975715637207
F-0.601186215877533
F-0.6397127509117126
tp612
a(F0.463495135307312
F-0.5900731086730957
F-0.6610492467880249
tp613
a(F0.4847378432750702
F-0.5907936692237854
F-0.6449745297431946
tp614
a(F0.5013683438301086
F-0.5818150639533997
F-0.6404069662094116
tp615
a(F0.4924260675907135
F-0.5823286771774292
F-0.6468461155891418
tp616
a(F0.4998915195465088
F-0.5793404579162598
F-0.6437957882881165
tp617
a(F0.48877236247062683
F-0.5828617811203003
F-0.6491330862045288
tp618
a(F0.4888359606266022
F-0.5907378792762756
F-0.6419252753257751
tp619
a(F0.4847109019756317
F-0.5874605178833008
F-0.6480319499969482
tp620
a(F0.49191954731941223
F-0.5896574258804321
F-0.6405616998672485
tp621
a(F0.47136226296424866
F-0.5993449091911316
F-0.646995484828949
tp622
a(F0.48660746216773987
F-0.5792170166969299
F-0.6540037989616394
tp623
a(F0.47625210881233215
F-0.5980175137519836
F-0.64463871717453
tp624
a(F0.47982504963874817
F-0.5914286375045776
F-0.6480587124824524
tp625
a(F0.4922053813934326
F-0.5892040133476257
F-0.6407593488693237
tp626
a(F0.48455533385276794
F-0.6043336391448975
F-0.6324453353881836
tp627
a(F0.4746372401714325
F-0.5967758893966675
F-0.6469760537147522
tp628
a(F0.4755992591381073
F-0.5909009575843811
F-0.6516450643539429
tp629
a(F0.48817726969718933
F-0.5878036618232727
F-0.6451122760772705
tp630
a(F0.49943265318870544
F-0.5804026126861572
F-0.6431950330734253
tp631
a(F0.4878711402416229
F-0.5971856117248535
F-0.6366718411445618
tp632
a(F0.5039108991622925
F-0.5927850008010864
F-0.6282355189323425
tp633
a(F0.4622754454612732
F-0.6009941697120667
F-0.6520025730133057
tp634
a(F0.5005035400390625
F-0.5854101777076721
F-0.6378017067909241
tp635
a(F0.49352431297302246
F-0.5917307734489441
F-0.6374076008796692
tp636
a(F0.47669705748558044
F-0.5879637002944946
F-0.6534973382949829
tp637
a(F0.47470489144325256
F-0.5986456274986267
F-0.6451966762542725
tp638
a(F0.5026329755783081
F-0.5861638784408569
F-0.6354305148124695
tp639
a(F0.5020337104797363
F-0.5913599729537964
F-0.6310749650001526
tp640
a(F0.4857616722583771
F-0.5936700701713562
F-0.6415539383888245
tp641
a(F0.4882945716381073
F-0.5979084372520447
F-0.635668158531189
tp642
a(F0.4894073009490967
F-0.60235995054245
F-0.6305893659591675
tp643
a(F0.496955543756485
F-0.5852057933807373
F-0.6407569646835327
tp644
a(F0.48001497983932495
F-0.5891439318656921
F-0.6499961018562317
tp645
a(F0.485958069562912
F-0.5975350141525269
F-0.637806236743927
tp646
a(F0.4786340296268463
F-0.6036628484725952
F-0.6375739574432373
tp647
a(F0.501497209072113
F-0.5826612710952759
F-0.6395360827445984
tp648
a(F0.4894278049468994
F-0.5815736651420593
F-0.6497941613197327
tp649
a(F0.47444745898246765
F-0.5805860161781311
F-0.661679208278656
tp650
a(F0.47859475016593933
F-0.5875982046127319
F-0.6524381041526794
tp651
a(F0.4693937599658966
F-0.5962094664573669
F-0.6513093113899231
tp652
a(F0.4818854331970215
F-0.6042969822883606
F-0.6345168352127075
tp653
a(F0.479369193315506
F-0.5879675149917603
F-0.651536226272583
tp654
a(F0.49634435772895813
F-0.5977174043655396
F-0.6295841932296753
tp655
a(F0.48328983783721924
F-0.6051447987556458
F-0.6326379179954529
tp656
a(F0.48031267523765564
F-0.5985321402549744
F-0.6411387920379639
tp657
a(F0.48538586497306824
F-0.5903167128562927
F-0.644923746585846
tp658
a(F0.47964906692504883
F-0.5998814105987549
F-0.6403741240501404
tp659
a(F0.47936347126960754
F-0.5968881249427795
F-0.6433780193328857
tp660
a(F0.49711593985557556
F-0.5781311988830566
F-0.6470240354537964
tp661
a(F0.49440327286720276
F-0.5835793018341064
F-0.6442053318023682
tp662
a(F0.48827505111694336
F-0.5999974012374878
F-0.6337118148803711
tp663
a(F0.4977187216281891
F-0.5937780141830444
F-0.6322213411331177
tp664
a(F0.48742279410362244
F-0.5873398184776306
F-0.6461045742034912
tp665
a(F0.4910178780555725
F-0.5977644324302673
F-0.6337026357650757
tp666
a(F0.48303937911987305
F-0.5981517434120178
F-0.6394429802894592
tp667
a(F0.49777525663375854
F-0.5800154209136963
F-0.644827127456665
tp668
a(F0.5016440153121948
F-0.5781456828117371
F-0.643506646156311
tp669
a(F0.49033838510513306
F-0.5855344533920288
F-0.6455367803573608
tp670
a(F0.4963035583496094
F-0.5833528637886047
F-0.6429481506347656
tp671
a(F0.4932870864868164
F-0.5925745964050293
F-0.6368071436882019
tp672
a(F0.49255868792533875
F-0.5973871946334839
F-0.6328620910644531
tp673
a(F0.48670846223831177
F-0.5863814353942871
F-0.6475120186805725
tp674
a(F0.5022906064987183
F-0.5869758725166321
F-0.6349514722824097
tp675
a(F0.5059651136398315
F-0.5871493816375732
F-0.6318662166595459
tp676
a(F0.4756270945072174
F-0.5968012809753418
F-0.6462252140045166
tp677
a(F0.4863540828227997
F-0.5818665623664856
F-0.651836633682251
tp678
a(F0.49465739727020264
F-0.5840309858322144
F-0.6436006426811218
tp679
a(F0.4931682348251343
F-0.5833421349525452
F-0.645365834236145
tp680
a(F0.4908367693424225
F-0.5960249900817871
F-0.6354790329933167
tp681
a(F0.4769858121871948
F-0.5999821424484253
F-0.6422662138938904
tp682
a(F0.4798908829689026
F-0.584984302520752
F-0.6538334488868713
tp683
a(F0.49958014488220215
F-0.580366313457489
F-0.6431132555007935
tp684
a(F0.48363929986953735
F-0.5887061357498169
F-0.6477022767066956
tp685
a(F0.49762117862701416
F-0.5864410400390625
F-0.6391088366508484
tp686
a(F0.4953010380268097
F-0.5940513014793396
F-0.6338610649108887
tp687
a(F0.4924653470516205
F-0.5978626608848572
F-0.6324856281280518
tp688
a(F0.4821300208568573
F-0.5296937227249146
F-0.69783616065979
tp689
a(F0.48365676403045654
F-0.6038380861282349
F-0.6336053609848022
tp690
a(F0.49636948108673096
F-0.5865140557289124
F-0.6400145888328552
tp691
a(F0.4720997214317322
F-0.5930187702178955
F-0.6522658467292786
tp692
a(F0.4786875247955322
F-0.5852101445198059
F-0.6545130610466003
tp693
a(F0.49007412791252136
F-0.575982391834259
F-0.6542719602584839
tp694
a(F0.48551273345947266
F-0.5957043170928955
F-0.6398544907569885
tp695
a(F0.4910464286804199
F-0.5823003649711609
F-0.6479195356369019
tp696
a(F0.4818781614303589
F-0.5969239473342896
F-0.6414633393287659
tp697
a(F0.4843878746032715
F-0.576715886592865
F-0.657850444316864
tp698
a(F0.4820723831653595
F-0.5965873599052429
F-0.6416304707527161
tp699
a(F0.502629816532135
F-0.5860719680786133
F-0.6355178952217102
tp700
a(F0.4762924909591675
F-0.6079440712928772
F-0.6352553963661194
tp701
a(F0.5034217238426208
F-0.5836212635040283
F-0.6371443271636963
tp702
a(F0.49663856625556946
F-0.5894652009010315
F-0.637087881565094
tp703
a(F0.4876534044742584
F-0.603722095489502
F-0.6306454539299011
tp704
a(F0.49593380093574524
F-0.5888804197311401
F-0.6381766200065613
tp705
a(F0.47289007902145386
F-0.5985482931137085
F-0.6466180086135864
tp706
a(F0.4955960512161255
F-0.5822218060493469
F-0.6445172429084778
tp707
a(F0.4867126941680908
F-0.5570626854896545
F-0.6728981137275696
tp708
a(F0.49916183948516846
F-0.5922995209693909
F-0.6324703097343445
tp709
a(F0.49421215057373047
F-0.585045337677002
F-0.643021285533905
tp710
a(F0.48311179876327515
F-0.5919365882873535
F-0.6451464891433716
tp711
a(F0.4800249934196472
F-0.6013326048851013
F-0.6387293338775635
tp712
a(F0.47657689452171326
F-0.5942979454994202
F-0.6478304862976074
tp713
a(F0.5005406141281128
F-0.581788957118988
F-0.6410777568817139
tp714
a(F0.4903063476085663
F-0.5832301378250122
F-0.6476435661315918
tp715
a(F0.490643173456192
F-0.5819228291511536
F-0.6485637426376343
tp716
a(F0.5116528272628784
F-0.5779271721839905
F-0.6357762813568115
tp717
a(F0.4801609516143799
F-0.589329183101654
F-0.6497203707695007
tp718
a(F0.4812299907207489
F-0.5912179350852966
F-0.647208571434021
tp719
a(F0.4906177222728729
F-0.5945002436637878
F-0.6370742321014404
tp720
a(F0.4947569966316223
F-0.5776930451393127
F-0.6492196917533875
tp721
a(F0.500533938407898
F-0.5863922834396362
F-0.6368750929832458
tp722
a(F0.4905532896518707
F-0.5940033793449402
F-0.6375871896743774
tp723
a(F0.4901178181171417
F-0.5757653117179871
F-0.6544302701950073
tp724
a(F0.474147230386734
F-0.6019222736358643
F-0.6425527334213257
tp725
a(F0.4790630340576172
F-0.5914395451545715
F-0.6486121416091919
tp726
a(F0.49577635526657104
F-0.5889236330986023
F-0.6382591724395752
tp727
a(F0.49413925409317017
F-0.5892996788024902
F-0.6391808986663818
tp728
a(F0.499515563249588
F-0.5801687836647034
F-0.643341600894928
tp729
a(F0.48271605372428894
F-0.5881417989730835
F-0.648902416229248
tp730
a(F0.49752628803253174
F-0.5842450261116028
F-0.6411905884742737
tp731
a(F0.4920470416545868
F-0.5913925170898438
F-0.6388618350028992
tp732
a(F0.489816814661026
F-0.5807839632034302
F-0.6502073407173157
tp733
a(F0.46908193826675415
F-0.5908414125442505
F-0.6564057469367981
tp734
a(F0.4868195354938507
F-0.5919187664985657
F-0.6423696875572205
tp735
a(F0.5031988620758057
F-0.5793158411979675
F-0.6412363052368164
tp736
a(F0.4889729917049408
F-0.5907272696495056
F-0.6418308019638062
tp737
a(F0.4834786057472229
F-0.5846713185310364
F-0.6514658331871033
tp738
a(F0.4832654297351837
F-0.5902172327041626
F-0.6466052532196045
tp739
a(F0.49539485573768616
F-0.5856735706329346
F-0.6415375471115112
tp740
a(F0.5096462368965149
F-0.5858262777328491
F-0.6301336884498596
tp741
a(F0.48500856757164
F-0.5962550640106201
F-0.6397237777709961
tp742
a(F0.4841674864292145
F-0.5995551943778992
F-0.6372719407081604
tp743
a(F0.4938446879386902
F-0.5937590599060059
F-0.635269820690155
tp744
a(F0.4928634464740753
F-0.5975251793861389
F-0.6324943900108337
tp745
a(F0.5022473931312561
F-0.5845926403999329
F-0.6371806263923645
tp746
a(F0.5096625089645386
F-0.566666305065155
F-0.6474050879478455
tp747
a(F0.48020580410957336
F-0.5966472625732422
F-0.6429731845855713
tp748
a(F0.5022375583648682
F-0.5839415192604065
F-0.6377849578857422
tp749
a(F0.5042029619216919
F-0.5852614641189575
F-0.6350184082984924
tp750
a(F0.479798287153244
F-0.5894590020179749
F-0.6498703956604004
tp751
a(F0.48455116152763367
F-0.5919767618179321
F-0.6440293192863464
tp752
a(F0.5003054738044739
F-0.5877751111984253
F-0.6357789635658264
tp753
a(F0.4918232560157776
F-0.5785362124443054
F-0.6506963968276978
tp754
a(F0.49190786480903625
F-0.5982744693756104
F-0.6325300931930542
tp755
a(F0.49798503518104553
F-0.5924524068832397
F-0.63325434923172
tp756
a(F0.48577815294265747
F-0.5878092646598816
F-0.64691561460495
tp757
a(F0.47392258048057556
F-0.5915563702583313
F-0.6522717475891113
tp758
a(F0.4963614046573639
F-0.5931195020675659
F-0.633904218673706
tp759
a(F0.4907594621181488
F-0.588174045085907
F-0.6428114175796509
tp760
a(F0.488757848739624
F-0.5832828879356384
F-0.6487656831741333
tp761
a(F0.4895566999912262
F-0.5845453143119812
F-0.6470247507095337
tp762
a(F0.48480212688446045
F-0.5858433246612549
F-0.649426281452179
tp763
a(F0.5034709572792053
F-0.5873916745185852
F-0.633630633354187
tp764
a(F0.45876434445381165
F-0.531670093536377
F-0.7119424939155579
tp765
a(F0.4780687987804413
F-0.5771434903144836
F-0.6620842814445496
tp766
a(F0.4831410050392151
F-0.5927510261535645
F-0.6443763971328735
tp767
a(F0.4786831736564636
F-0.6022075414657593
F-0.6389120221138
tp768
a(F0.49881190061569214
F-0.5784953832626343
F-0.6453911662101746
tp769
a(F0.49145328998565674
F-0.5822678804397583
F-0.64764004945755
tp770
a(F0.4889591932296753
F-0.5826345682144165
F-0.6491963863372803
tp771
a(F0.48495885729789734
F-0.5777479410171509
F-0.6565228700637817
tp772
a(F0.5015255212783813
F-0.5786898732185364
F-0.6431097388267517
tp773
a(F0.48872554302215576
F-0.5935855507850647
F-0.6393774747848511
tp774
a(F0.4907047748565674
F-0.5839514136314392
F-0.6466911435127258
tp775
a(F0.4797898530960083
F-0.5933299660682678
F-0.6463444828987122
tp776
a(F0.5049058198928833
F-0.5866215825080872
F-0.6332024335861206
tp777
a(F0.505058765411377
F-0.5885022878646851
F-0.6313325762748718
tp778
a(F0.49385449290275574
F-0.5892584323883057
F-0.6394389867782593
tp779
a(F0.48804229497909546
F-0.5877137780189514
F-0.6452962756156921
tp780
a(F0.4796322286128998
F-0.5965335965156555
F-0.6435064673423767
tp781
a(F0.47718560695648193
F-0.5893378257751465
F-0.6519008874893188
tp782
a(F0.48644059896469116
F-0.6023936867713928
F-0.6328485608100891
tp783
a(F0.49547311663627625
F-0.5964130163192749
F-0.631504476070404
tp784
a(F0.4963020980358124
F-0.592087984085083
F-0.634914219379425
tp785
a(F0.4879893362522125
F-0.5833785533905029
F-0.6492579579353333
tp786
a(F0.4794458746910095
F-0.6029871106147766
F-0.6376035213470459
tp787
a(F0.4904407858848572
F-0.589546263217926
F-0.6417967081069946
tp788
a(F0.4938221573829651
F-0.5824244618415833
F-0.6456946134567261
tp789
a(F0.5009778141975403
F-0.5961766242980957
F-0.6273711323738098
tp790
a(F0.5014957189559937
F-0.5960934162139893
F-0.6270365118980408
tp791
a(F0.49661147594451904
F-0.5900775194168091
F-0.6365419626235962
tp792
a(F0.47675439715385437
F-0.5990498661994934
F-0.6433074474334717
tp793
a(F0.4852132797241211
F-0.5994674563407898
F-0.6365585923194885
tp794
a(F0.48812711238861084
F-0.5874082446098328
F-0.6455103158950806
tp795
a(F0.48743027448654175
F-0.5899263024330139
F-0.6437380909919739
tp796
a(F0.4874522089958191
F-0.5703961253166199
F-0.6610890030860901
tp797
a(F0.49013569951057434
F-0.5932605862617493
F-0.6385990977287292
tp798
a(F0.4820064902305603
F-0.5912193655967712
F-0.6466291546821594
tp799
a(F0.48898518085479736
F-0.5945379137992859
F-0.6382931470870972
tp800
a(F0.49523332715034485
F-0.5882481932640076
F-0.639302670955658
tp801
a(F0.4958512485027313
F-0.5798613429069519
F-0.6464458703994751
tp802
a(F0.47867077589035034
F-0.5948803424835205
F-0.6457489728927612
tp803
a(F0.4896125793457031
F-0.5922093391418457
F-0.6399745941162109
tp804
a(F0.49590325355529785
F-0.5894791483879089
F-0.6376474499702454
tp805
a(F0.4836510419845581
F-0.5997098684310913
F-0.6375184655189514
tp806
a(F0.4933428168296814
F-0.5897279977798462
F-0.6394010782241821
tp807
a(F0.49120286107063293
F-0.5875648260116577
F-0.6430298686027527
tp808
a(F0.49529996514320374
F-0.5982842445373535
F-0.6298681497573853
tp809
a(F0.5027121305465698
F-0.5787555575370789
F-0.6421234607696533
tp810
a(F0.48280635476112366
F-0.5770153999328613
F-0.6587497591972351
tp811
a(F0.5078054070472717
F-0.5848644971847534
F-0.6325086951255798
tp812
a(F0.45789381861686707
F-0.5372443795204163
F-0.7083090543746948
tp813
a(F0.5007285475730896
F-0.5863693952560425
F-0.6367431282997131
tp814
a(F0.5163065791130066
F-0.5622972846031189
F-0.6459484696388245
tp815
a(F0.5142288208007812
F-0.5662218332290649
F-0.6441750526428223
tp816
a(F0.49678266048431396
F-0.5814921855926514
F-0.6442621946334839
tp817
a(F0.4807029664516449
F-0.5894117951393127
F-0.6492444276809692
tp818
a(F0.4886995255947113
F-0.6004016399383545
F-0.6330013275146484
tp819
a(F0.5005422234535217
F-0.5817623734474182
F-0.6411005854606628
tp820
a(F0.4930053651332855
F-0.5791574120521545
F-0.6492475867271423
tp821
a(F0.4667292535305023
F-0.5784009099006653
F-0.6690412759780884
tp822
a(F0.4973636865615845
F-0.5974667072296143
F-0.6290174126625061
tp823
a(F0.4961436092853546
F-0.5859376192092896
F-0.6407172083854675
tp824
a(F0.5019219517707825
F-0.5944579243659973
F-0.6282468438148499
tp825
a(F0.47741973400115967
F-0.5941981077194214
F-0.6473012566566467
tp826
a(F0.4725579023361206
F-0.5913295149803162
F-0.653466522693634
tp827
a(F0.4931151866912842
F-0.5794363617897034
F-0.6489152312278748
tp828
a(F0.4954560697078705
F-0.5834498405456543
F-0.6435134410858154
tp829
a(F0.5111254453659058
F-0.5822057127952576
F-0.632287323474884
tp830
a(F0.4972243010997772
F-0.5894933938980103
F-0.6366045475006104
tp831
a(F0.5148988366127014
F-0.580251157283783
F-0.6310211420059204
tp832
a(F0.5125500559806824
F-0.5811614394187927
F-0.6320947408676147
tp833
a(F0.4962671101093292
F-0.5848578810691833
F-0.6416074633598328
tp834
a(F0.4857255816459656
F-0.5770147442817688
F-0.656600832939148
tp835
a(F0.4842891991138458
F-0.5958643555641174
F-0.6406322717666626
tp836
a(F0.49644461274147034
F-0.5965924263000488
F-0.6305713653564453
tp837
a(F0.48695966601371765
F-0.5781903266906738
F-0.6546496748924255
tp838
a(F0.4611958861351013
F-0.5912015438079834
F-0.661648690700531
tp839
a(F0.4550991356372833
F-0.6038804650306702
F-0.6543799638748169
tp840
a(F0.4918166995048523
F-0.6037709712982178
F-0.6273571848869324
tp841
a(F0.4956326186656952
F-0.6096234321594238
F-0.618633508682251
tp842
a(F0.4814797639846802
F-0.6025969386100769
F-0.6364386677742004
tp843
a(F0.4756489098072052
F-0.5932929515838623
F-0.6494317054748535
tp844
a(F0.49392756819725037
F-0.5970407724380493
F-0.6321218609809875
tp845
a(F0.4687526226043701
F-0.595116138458252
F-0.6527693271636963
tp846
a(F0.48417118191719055
F-0.5889824628829956
F-0.6470532417297363
tp847
a(F0.48190149664878845
F-0.6153375506401062
F-0.6238033175468445
tp848
a(F0.48720481991767883
F-0.5994551181793213
F-0.635047197341919
tp849
a(F0.4647029936313629
F-0.6107756495475769
F-0.6410961151123047
tp850
a(F0.4799858629703522
F-0.60298091173172
F-0.6372029185295105
tp851
a(F0.47602513432502747
F-0.6022878289222717
F-0.6408194303512573
tp852
a(F0.5005643963813782
F-0.5775187611579895
F-0.6449087858200073
tp853
a(F0.48873698711395264
F-0.5908141136169434
F-0.6419304609298706
tp854
a(F0.4736313819885254
F-0.6048468351364136
F-0.6401824951171875
tp855
a(F0.472378671169281
F-0.6143971085548401
F-0.631960928440094
tp856
a(F0.48147812485694885
F-0.6074071526527405
F-0.6318508386611938
tp857
a(F0.4801250398159027
F-0.5914076566696167
F-0.6478555798530579
tp858
a(F0.4729655385017395
F-0.601840615272522
F-0.6434994339942932
tp859
a(F0.4700842797756195
F-0.6023375988006592
F-0.6451435685157776
tp860
a(F0.4871233403682709
F-0.6080454587936401
F-0.6268903613090515
tp861
a(F0.4650634229183197
F-0.6305703520774841
F-0.6213670969009399
tp862
a(F0.4917164444923401
F-0.6278159618377686
F-0.6033756732940674
tp863
a(F0.48554760217666626
F-0.645515501499176
F-0.5895364284515381
tp864
a(F0.49394744634628296
F-0.6375936269760132
F-0.5911771655082703
tp865
a(F0.4545515775680542
F-0.6790752410888672
F-0.5764023661613464
tp866
a(F0.4816923141479492
F-0.6659969687461853
F-0.5695791244506836
tp867
a(F0.4948442280292511
F-0.6859184503555298
F-0.5335213541984558
tp868
a(F0.4993743300437927
F-0.7060834169387817
F-0.5020673871040344
tp869
a(F0.5009422898292542
F-0.7365320920944214
F-0.45450785756111145
tp870
a(F0.5044946670532227
F-0.7315869927406311
F-0.45854729413986206
tp871
a(F0.4913424253463745
F-0.7684264779090881
F-0.4100040793418884
tp872
a(F0.475320965051651
F-0.7519770860671997
F-0.4567280411720276
tp873
a(F0.5144293904304504
F-0.7809059023857117
F-0.3543279767036438
tp874
a(F0.4893025755882263
F-0.8031678199768066
F-0.33985939621925354
tp875
a(F0.5291221737861633
F-0.7857829332351685
F-0.32027286291122437
tp876
a(F0.5180507302284241
F-0.8106023669242859
F-0.27303341031074524
tp877
a(F0.5164130926132202
F-0.8139178156852722
F-0.2661864161491394
tp878
a(F0.5241047739982605
F-0.8173750042915344
F-0.2391909509897232
tp879
a(F0.541334867477417
F-0.8197399377822876
F-0.18703734874725342
tp880
a(F0.5553494691848755
F-0.8171612620353699
F-0.15438461303710938
tp881
a(F0.541210412979126
F-0.8338634967803955
F-0.10845727473497391
tp882
a(F0.5537814497947693
F-0.8263806700706482
F-0.1020837277173996
tp883
a(F0.5427480936050415
F-0.8369895219802856
F-0.06980635970830917
tp884
a(F0.5676239132881165
F-0.8218492269515991
F-0.04865225777029991
tp885
a(F0.5586783289909363
F-0.8292639255523682
F-0.014130150899291039
tp886
a(F0.5421424508094788
F-0.8402506113052368
F0.0077766310423612595
tp887
a(F0.5578262805938721
F-0.8296999931335449
F0.02068091556429863
tp888
a(F0.5721476078033447
F-0.8162546753883362
F-0.0798460990190506
tp889
a(F0.5616546869277954
F-0.8272366523742676
F0.01495098415762186
tp890
a(F0.5362000465393066
F-0.843929648399353
F0.016495995223522186
tp891
a(F0.5423229932785034
F-0.8396291732788086
F0.030144887045025826
tp892
a(F0.5451837778091431
F-0.8382528424263
F0.010335719212889671
tp893
a(F0.5369415283203125
F-0.8433336615562439
F0.021958250552415848
tp894
a(F0.5464449524879456
F-0.8374648690223694
F0.0071074580773711205
tp895
a(F0.545591413974762
F-0.8377102613449097
F0.02390570193529129
tp896
a(F0.5438746809959412
F-0.83884197473526
F0.023334898054599762
tp897
a(F0.5203226804733276
F-0.8526726365089417
F0.04704968258738518
tp898
a(F0.5345286726951599
F-0.8448413610458374
F0.022848239168524742
tp899
a(F0.5367788672447205
F-0.8433911204338074
F0.02366315759718418
tp900
a(F0.5468307137489319
F-0.8363524675369263
F0.03860756754875183
tp901
a(F0.5406071543693542
F-0.8406330943107605
F0.03286311402916908
tp902
a(F0.5206644535064697
F-0.8526970744132996
F0.04261584207415581
tp903
a(F0.5279514193534851
F-0.8474190831184387
F0.056109461933374405
tp904
a(F0.5138400793075562
F-0.8558128476142883
F0.05960460007190704
tp905
a(F0.511838972568512
F-0.8566340208053589
F0.06479990482330322
tp906
a(F0.538716197013855
F-0.8402189016342163
F0.061783503741025925
tp907
a(F0.525336742401123
F-0.8481020927429199
F0.06887844949960709
tp908
a(F0.5184035897254944
F-0.851410448551178
F0.07973790168762207
tp909
a(F0.5237783193588257
F-0.8475422263145447
F0.0856066420674324
tp910
a(F0.5195491313934326
F-0.8495038747787476
F0.09171666949987411
tp911
a(F0.509878396987915
F-0.8562610745429993
F0.08271006494760513
tp912
a(F0.5085325837135315
F-0.8554965257644653
F0.09757259488105774
tp913
a(F0.5018928647041321
F-0.8592256903648376
F0.09917035698890686
tp914
a(F0.4922841191291809
F-0.8634086847305298
F0.1103709489107132
tp915
a(F0.5180415511131287
F-0.8483982682228088
F0.10887271910905838
tp916
a(F0.49959805607795715
F-0.8600938320159912
F0.10315209627151489
tp917
a(F0.49210453033447266
F-0.8628503084182739
F0.11542299389839172
tp918
a(F0.5055230855941772
F-0.8509436845779419
F0.14262284338474274
tp919
a(F0.5097757577896118
F-0.8474162817001343
F0.14837199449539185
tp920
a(F0.4846513271331787
F-0.8545412421226501
F0.18674160540103912
tp921
a(F0.4955891966819763
F-0.8480144143104553
F0.1877843141555786
tp922
a(F0.5006735920906067
F-0.8452540040016174
F0.1867397278547287
tp923
a(F0.5112283825874329
F-0.8347488641738892
F0.20454798638820648
tp924
a(F0.5100635886192322
F-0.8374576568603516
F0.1962140053510666
tp925
a(F0.4842436909675598
F-0.8543621897697449
F0.18860918283462524
tp926
a(F0.49258676171302795
F-0.8492777347564697
F0.18996208906173706
tp927
a(F0.4928753674030304
F-0.8470847010612488
F0.19879984855651855
tp928
a(F0.5091606974601746
F-0.8405014872550964
F0.18523672223091125
tp929
a(F0.48771005868911743
F-0.8498038649559021
F0.19993068277835846
tp930
a(F0.5176343321800232
F-0.8334885835647583
F0.1932653784751892
tp931
a(F0.5220130681991577
F-0.8322516083717346
F0.18670722842216492
tp932
a(F0.5244207382202148
F-0.8352038860321045
F0.16558198630809784
tp933
a(F0.5096045136451721
F-0.8430848717689514
F0.171788290143013
tp934
a(F0.5036503672599792
F-0.8497759103775024
F0.15561863780021667
tp935
a(F0.5109661817550659
F-0.8463911414146423
F0.1501186043024063
tp936
a(F0.49555009603500366
F-0.8551691174507141
F0.15203888714313507
tp937
a(F0.5045552253723145
F-0.8489121198654175
F0.1573917120695114
tp938
a(F0.4952802062034607
F-0.8570280075073242
F0.14212845265865326
tp939
a(F0.513304591178894
F-0.846537172794342
F0.14104315638542175
tp940
a(F0.4895555078983307
F-0.8622341156005859
F0.12995260953903198
tp941
a(F0.49720442295074463
F-0.8590952754020691
F0.12142131477594376
tp942
a(F0.49308428168296814
F-0.8593498468399048
F0.1355934739112854
tp943
a(F0.5107589364051819
F-0.8557103872299194
F0.08297625929117203
tp944
a(F0.5113899111747742
F-0.8572405576705933
F0.0601581372320652
tp945
a(F0.4980558156967163
F-0.8668845295906067
F0.0212525874376297
tp946
a(F0.4936492145061493
F-0.8694664835929871
F0.018396852537989616
tp947
a(F0.4922380745410919
F-0.8700999021530151
F-0.02505856193602085
tp948
a(F0.48826003074645996
F-0.872511625289917
F-0.01804417371749878
tp949
a(F0.48243290185928345
F-0.8737577199935913
F-0.06169251725077629
tp950
a(F0.4972570538520813
F-0.8631469011306763
F-0.08782226592302322
tp951
a(F0.4999817907810211
F-0.8603501319885254
F-0.0990743637084961
tp952
a(F0.49441078305244446
F-0.8545853495597839
F-0.15887628495693207
tp953
a(F0.4650200605392456
F-0.8693974614143372
F-0.16704602539539337
tp954
a(F0.4749158024787903
F-0.8509095907211304
F-0.2245171070098877
tp955
a(F0.4870961010456085
F-0.8420642018318176
F-0.2316577136516571
tp956
a(F0.46676105260849
F-0.8494677543640137
F-0.2460460066795349
tp957
a(F0.49529385566711426
F-0.8235523104667664
F-0.27648788690567017
tp958
a(F0.4878474175930023
F-0.7965744137763977
F-0.35703524947166443
tp959
a(F0.4674682021141052
F-0.7995312809944153
F-0.37712499499320984
tp960
a(F0.4832353889942169
F-0.7664669156074524
F-0.4230981171131134
tp961
a(F0.4863584637641907
F-0.7428354024887085
F-0.46005547046661377
tp962
a(F0.4685261845588684
F-0.7380874752998352
F-0.485499769449234
tp963
a(F0.47536328434944153
F-0.7027612328529358
F-0.5292980670928955
tp964
a(F0.49177563190460205
F-0.6773322820663452
F-0.5471541285514832
tp965
a(F0.47433045506477356
F-0.6649729609489441
F-0.5769068598747253
tp966
a(F0.4736957252025604
F-0.654051661491394
F-0.5897699594497681
tp967
a(F0.4907747805118561
F-0.6335692405700684
F-0.5981054902076721
tp968
a(F0.50827556848526
F-0.5917327404022217
F-0.6257062554359436
tp969
a(F0.5428190231323242
F-0.5677339434623718
F-0.6188905835151672
tp970
a(F0.5247883200645447
F-0.5290519595146179
F-0.6668593883514404
tp971
a(F0.5152680277824402
F-0.45370402932167053
F-0.7270843386650085
tp972
a(F0.5373769998550415
F-0.4895882308483124
F-0.6866799592971802
tp973
a(F0.5497293472290039
F-0.47534850239753723
F-0.6869072318077087
tp974
a(F0.5513325333595276
F-0.43187108635902405
F-0.7138065695762634
tp975
a(F0.5556769967079163
F-0.3834677040576935
F-0.7376825213432312
tp976
a(F0.5316342115402222
F-0.38661521673202515
F-0.7535872459411621
tp977
a(F0.5538990497589111
F-0.3520546555519104
F-0.7544888257980347
tp978
a(F0.5426965355873108
F-0.319326788187027
F-0.776859700679779
tp979
a(F0.5312352776527405
F-0.2953929305076599
F-0.794060468673706
tp980
a(F0.5555627346038818
F-0.25089964270591736
F-0.7927165031433105
tp981
a(F0.567895770072937
F-0.21969860792160034
F-0.7932382225990295
tp982
a(F0.5677750706672668
F-0.2182808518409729
F-0.7937158942222595
tp983
a(F0.575721800327301
F-0.19883692264556885
F-0.7931004166603088
tp984
a(F0.5786013007164001
F-0.173592209815979
F-0.7969229817390442
tp985
a(F0.5724257826805115
F-0.1448967009782791
F-0.8070523738861084
tp986
a(F0.5878572463989258
F-0.1491812765598297
F-0.7950904369354248
tp987
a(F0.5804240107536316
F-0.12536559998989105
F-0.8046063184738159
tp988
a(F0.5887420773506165
F-0.12015824764966965
F-0.7993401885032654
tp989
a(F0.582057774066925
F-0.120294488966465
F-0.8042001724243164
tp990
a(F0.5839016437530518
F-0.11561184376478195
F-0.803550124168396
tp991
a(F0.5866965055465698
F-0.11697407066822052
F-0.8013140559196472
tp992
a(F0.5901783108711243
F-0.10228219628334045
F-0.8007670640945435
tp993
a(F0.5953748226165771
F-0.11004264652729034
F-0.7958765029907227
tp994
a(F0.5841359496116638
F-0.1320720613002777
F-0.8008383512496948
tp995
a(F0.5934165716171265
F-0.10217958688735962
F-0.7983834147453308
tp996
a(F0.5925259590148926
F-0.0943249836564064
F-0.8000099062919617
tp997
a(F0.5764297842979431
F-0.11702580004930496
F-0.808723509311676
tp998
a(F0.578844428062439
F-0.10134980827569962
F-0.8091151118278503
tp999
a(F0.5767239928245544
F-0.1098165214061737
F-0.809524416923523
tp1000
a(F0.5825218558311462
F-0.1288401186466217
F-0.8025388121604919
tp1001
a.